; ModuleID = '28/1983.c'
source_filename = "28/1983.c"
target datalayout = "e-m:e-p270:32:32-p271:32:32-p272:64:64-i64:64-f80:128-n8:16:32:64-S128"
target triple = "x86_64-pc-linux-gnu"

@a = common dso_local global [50000 x i8] zeroinitializer, align 16
@.str = private unnamed_addr constant [4 x i8] c",%d\00", align 1
@.str.1 = private unnamed_addr constant [3 x i8] c"%d\00", align 1

; Function Attrs: noinline nounwind uwtable
define dso_local i32 @main() #0 {
  %1 = alloca i32, align 4
  %2 = alloca i32, align 4
  %3 = alloca i32, align 4
  %4 = alloca i32, align 4
  %5 = alloca i32, align 4
  %6 = alloca i32, align 4
  store i32 0, i32* %1, align 4
  %7 = call i32 (i8*, ...) bitcast (i32 (...)* @gets to i32 (i8*, ...)*)(i8* getelementptr inbounds ([50000 x i8], [50000 x i8]* @a, i64 0, i64 0))
  %8 = call i64 @strlen(i8* getelementptr inbounds ([50000 x i8], [50000 x i8]* @a, i64 0, i64 0)) #3
  %9 = trunc i64 %8 to i32
  store i32 %9, i32* %4, align 4
  store i32 0, i32* %5, align 4
  store i32 1, i32* %6, align 4
  %10 = load i32, i32* %4, align 4
  %11 = sext i32 %10 to i64
  %12 = getelementptr inbounds [50000 x i8], [50000 x i8]* @a, i64 0, i64 %11
  store i8 32, i8* %12, align 1
  store i32 0, i32* %3, align 4
  br label %13

13:                                               ; preds = %70, %0
  %14 = load i32, i32* %3, align 4
  %15 = load i32, i32* %4, align 4
  %16 = icmp slt i32 %14, %15
  br i1 %16, label %17, label %73

17:                                               ; preds = %13
  %18 = load i32, i32* %3, align 4
  %19 = sext i32 %18 to i64
  %20 = getelementptr inbounds [50000 x i8], [50000 x i8]* @a, i64 0, i64 %19
  %21 = load i8, i8* %20, align 1
  %22 = sext i8 %21 to i32
  %23 = icmp ne i32 %22, 32
  br i1 %23, label %24, label %27

24:                                               ; preds = %17
  %25 = load i32, i32* %5, align 4
  %26 = add nsw i32 %25, 1
  store i32 %26, i32* %5, align 4
  br label %27

27:                                               ; preds = %24, %17
  %28 = load i32, i32* %3, align 4
  %29 = add nsw i32 %28, 1
  %30 = sext i32 %29 to i64
  %31 = getelementptr inbounds [50000 x i8], [50000 x i8]* @a, i64 0, i64 %30
  %32 = load i8, i8* %31, align 1
  %33 = sext i8 %32 to i32
  %34 = icmp eq i32 %33, 32
  br i1 %34, label %35, label %48

35:                                               ; preds = %27
  %36 = load i32, i32* %3, align 4
  %37 = sext i32 %36 to i64
  %38 = getelementptr inbounds [50000 x i8], [50000 x i8]* @a, i64 0, i64 %37
  %39 = load i8, i8* %38, align 1
  %40 = sext i8 %39 to i32
  %41 = icmp ne i32 %40, 32
  br i1 %41, label %42, label %48

42:                                               ; preds = %35
  %43 = load i32, i32* %6, align 4
  %44 = icmp ne i32 %43, 1
  br i1 %44, label %45, label %48

45:                                               ; preds = %42
  %46 = load i32, i32* %5, align 4
  %47 = call i32 (i8*, ...) @printf(i8* getelementptr inbounds ([4 x i8], [4 x i8]* @.str, i64 0, i64 0), i32 %46)
  store i32 0, i32* %5, align 4
  br label %48

48:                                               ; preds = %45, %42, %35, %27
  %49 = load i32, i32* %3, align 4
  %50 = add nsw i32 %49, 1
  %51 = sext i32 %50 to i64
  %52 = getelementptr inbounds [50000 x i8], [50000 x i8]* @a, i64 0, i64 %51
  %53 = load i8, i8* %52, align 1
  %54 = sext i8 %53 to i32
  %55 = icmp eq i32 %54, 32
  br i1 %55, label %56, label %69

56:                                               ; preds = %48
  %57 = load i32, i32* %3, align 4
  %58 = sext i32 %57 to i64
  %59 = getelementptr inbounds [50000 x i8], [50000 x i8]* @a, i64 0, i64 %58
  %60 = load i8, i8* %59, align 1
  %61 = sext i8 %60 to i32
  %62 = icmp ne i32 %61, 32
  br i1 %62, label %63, label %69

63:                                               ; preds = %56
  %64 = load i32, i32* %6, align 4
  %65 = icmp eq i32 %64, 1
  br i1 %65, label %66, label %69

66:                                               ; preds = %63
  %67 = load i32, i32* %5, align 4
  %68 = call i32 (i8*, ...) @printf(i8* getelementptr inbounds ([3 x i8], [3 x i8]* @.str.1, i64 0, i64 0), i32 %67)
  store i32 0, i32* %6, align 4
  store i32 0, i32* %5, align 4
  br label %69

69:                                               ; preds = %66, %63, %56, %48
  br label %70

70:                                               ; preds = %69
  %71 = load i32, i32* %3, align 4
  %72 = add nsw i32 %71, 1
  store i32 %72, i32* %3, align 4
  br label %13

73:                                               ; preds = %13
  ret i32 0
}

declare dso_local i32 @gets(...) #1

; Function Attrs: nounwind readonly
declare dso_local i64 @strlen(i8*) #2

declare dso_local i32 @printf(i8*, ...) #1


!llvm.module.flags = !{!0}
!llvm.ident = !{!1}

!0 = !{i32 1, !"wchar_size", i32 4}
!1 = !{!"clang version 10.0.0-4ubuntu1 "}
